target datalayout = "e-m:e-p270:32:32-p271:32:32-p272:64:64-i64:64-i128:128-f80:128-n8:16:32:64-S128"
target triple = "x86_64-pc-linux-gnu"

%struct.file_entry_t = type { i32, ptr, i8, i8, i32, i64, ptr, %struct.datapagemap, i8, i32, i64, ptr, i32 }
%struct.datapagemap = type { ptr, i32 }

; Function Attrs: nounwind uwtable
define internal i32 @final_filemap_cmp(ptr noundef %0, ptr noundef %1) #0 {
  %3 = alloca i32, align 4
  %4 = alloca ptr, align 8
  %5 = alloca ptr, align 8
  %6 = alloca ptr, align 8
  %7 = alloca ptr, align 8
  %8 = alloca i32, align 4
  store ptr %0, ptr %4, align 8
  store ptr %1, ptr %5, align 8
  call void @llvm.lifetime.start.p0(i64 8, ptr %6) #11
  %9 = load ptr, ptr %4, align 8
  %10 = load ptr, ptr %9, align 8
  store ptr %10, ptr %6, align 8
  call void @llvm.lifetime.start.p0(i64 8, ptr %7) #11
  %11 = load ptr, ptr %5, align 8
  %12 = load ptr, ptr %11, align 8
  store ptr %12, ptr %7, align 8
  %13 = load ptr, ptr %6, align 8
  %14 = getelementptr inbounds nuw %struct.file_entry_t, ptr %13, i32 0, i32 12
  %15 = load i32, ptr %14, align 8
  %16 = load ptr, ptr %7, align 8
  %17 = getelementptr inbounds nuw %struct.file_entry_t, ptr %16, i32 0, i32 12
  %18 = load i32, ptr %17, align 8
  %19 = icmp ugt i32 %15, %18
  br i1 %19, label %20, label %21

20:                                               ; preds = %2
  store i32 1, ptr %3, align 4
  store i32 1, ptr %8, align 4
  br label %51

21:                                               ; preds = %2
  %22 = load ptr, ptr %6, align 8
  %23 = getelementptr inbounds nuw %struct.file_entry_t, ptr %22, i32 0, i32 12
  %24 = load i32, ptr %23, align 8
  %25 = load ptr, ptr %7, align 8
  %26 = getelementptr inbounds nuw %struct.file_entry_t, ptr %25, i32 0, i32 12
  %27 = load i32, ptr %26, align 8
  %28 = icmp ult i32 %24, %27
  br i1 %28, label %29, label %30

29:                                               ; preds = %21
  store i32 -1, ptr %3, align 4
  store i32 1, ptr %8, align 4
  br label %51

30:                                               ; preds = %21
  %31 = load ptr, ptr %6, align 8
  %32 = getelementptr inbounds nuw %struct.file_entry_t, ptr %31, i32 0, i32 12
  %33 = load i32, ptr %32, align 8
  %34 = icmp eq i32 %33, 6
  br i1 %34, label %35, label %43

35:                                               ; preds = %30
  %36 = load ptr, ptr %7, align 8
  %37 = getelementptr inbounds nuw %struct.file_entry_t, ptr %36, i32 0, i32 1
  %38 = load ptr, ptr %37, align 8
  %39 = load ptr, ptr %6, align 8
  %40 = getelementptr inbounds nuw %struct.file_entry_t, ptr %39, i32 0, i32 1
  %41 = load ptr, ptr %40, align 8
  %42 = call i32 @strcmp(ptr noundef %38, ptr noundef %41) #12
  store i32 %42, ptr %3, align 4
  store i32 1, ptr %8, align 4
  br label %51

43:                                               ; preds = %30
  %44 = load ptr, ptr %6, align 8
  %45 = getelementptr inbounds nuw %struct.file_entry_t, ptr %44, i32 0, i32 1
  %46 = load ptr, ptr %45, align 8
  %47 = load ptr, ptr %7, align 8
  %48 = getelementptr inbounds nuw %struct.file_entry_t, ptr %47, i32 0, i32 1
  %49 = load ptr, ptr %48, align 8
  %50 = call i32 @strcmp(ptr noundef %46, ptr noundef %49) #12
  store i32 %50, ptr %3, align 4
  store i32 1, ptr %8, align 4
  br label %51

51:                                               ; preds = %43, %35, %29, %20
  call void @llvm.lifetime.end.p0(i64 8, ptr %7) #11
  call void @llvm.lifetime.end.p0(i64 8, ptr %6) #11
  %52 = load i32, ptr %3, align 4
  ret i32 %52
}