; Function Attrs: mustprogress nofree nounwind willreturn memory(read, inaccessiblemem: none) uwtable
define internal i32 @final_filemap_cmp(ptr noundef readonly captures(none) %0, ptr noundef readonly captures(none) %1) #7 {
  %3 = load ptr, ptr %0, align 8
  %4 = load ptr, ptr %1, align 8
  %5 = getelementptr inbounds nuw i8, ptr %3, i64 80
  %6 = load i32, ptr %5, align 8
  %7 = getelementptr inbounds nuw i8, ptr %4, i64 80
  %8 = load i32, ptr %7, align 8
  %9 = icmp ugt i32 %6, %8
  br i1 %9, label %18, label %10

10:                                               ; preds = %2
  %11 = icmp ult i32 %6, %8
  br i1 %11, label %18, label %.sink.split

.sink.split:                                      ; preds = %10
  %12 = icmp eq i32 %6, 6
  %. = select i1 %12, ptr %4, ptr %3
  %.17 = select i1 %12, ptr %3, ptr %4
  %13 = getelementptr inbounds nuw i8, ptr %., i64 8
  %14 = load ptr, ptr %13, align 8
  %15 = getelementptr inbounds nuw i8, ptr %.17, i64 8
  %16 = load ptr, ptr %15, align 8
  %17 = tail call i32 @strcmp(ptr noundef nonnull dereferenceable(1) %14, ptr noundef nonnull dereferenceable(1) %16) #15
  br label %18

18:                                               ; preds = %.sink.split, %10, %2
  %.0 = phi i32 [ 1, %2 ], [ -1, %10 ], [ %17, %.sink.split ]
  ret i32 %.0
}